; Function Attrs: nounwind sspstrong uwtable
define internal fastcc void @address_space_stl_internal_cached_slow(ptr noundef readonly captures(none) %cache, i64 noundef %addr, i32 noundef %val, i32 %attrs.coerce, ptr noundef writeonly %result, i32 noundef range(i32 0, 3) %endian) unnamed_addr #0 {
entry:
  %l = alloca i64, align 8
  %addr1 = alloca i64, align 8
  store i64 4, ptr %l, align 8
  %call = call fastcc ptr @address_space_translate_cached(ptr noundef %cache, i64 noundef %addr, ptr noundef %addr1, ptr noundef %l, i1 noundef zeroext true, i32 %attrs.coerce)
  %0 = load i64, ptr %l, align 8
  %cmp = icmp ult i64 %0, 4
  br i1 %cmp, label %if.then, label %lor.lhs.false

lor.lhs.false:                                    ; preds = %entry
  %1 = getelementptr i8, ptr %call, i64 41
  %mr.val.i = load i8, ptr %1, align 1
  %tobool.i.i = trunc i8 %mr.val.i to i1
  br i1 %tobool.i.i, label %land.lhs.true.i, label %if.then

land.lhs.true.i:                                  ; preds = %lor.lhs.false
  %readonly.i = getelementptr inbounds nuw i8, ptr %call, i64 43
  %2 = load i8, ptr %readonly.i, align 1
  %tobool1.i = trunc i8 %2 to i1
  br i1 %tobool1.i, label %if.then, label %land.lhs.true2.i

land.lhs.true2.i:                                 ; preds = %land.lhs.true.i
  %rom_device.i = getelementptr inbounds nuw i8, ptr %call, i64 45
  %3 = load i8, ptr %rom_device.i, align 1
  %tobool3.i = trunc i8 %3 to i1
  br i1 %tobool3.i, label %if.then, label %memory_access_is_direct.exit

memory_access_is_direct.exit:                     ; preds = %land.lhs.true2.i
  %call4.i = tail call zeroext i1 @memory_region_is_ram_device(ptr noundef nonnull %call) #28
  br i1 %call4.i, label %if.then, label %if.else

if.then:                                          ; preds = %lor.lhs.false, %land.lhs.true.i, %land.lhs.true2.i, %memory_access_is_direct.exit, %entry
  %call.i = tail call zeroext i1 @qemu_mutex_iothread_locked() #28
  br i1 %call.i, label %prepare_mmio_access.exit, label %if.then.i

if.then.i:                                        ; preds = %if.then
  tail call void @qemu_mutex_lock_iothread_impl(ptr noundef nonnull @.str.1, i32 noundef 2643) #28
  br label %prepare_mmio_access.exit

prepare_mmio_access.exit:                         ; preds = %if.then, %if.then.i
  %release_lock.0.i = xor i1 %call.i, true
  %4 = load i64, ptr %addr1, align 8
  %conv6 = zext i32 %val to i64
  %cmp.i = icmp eq i32 %endian, 1
  %or8 = select i1 %cmp.i, i32 18, i32 2
  %call10 = tail call i32 @memory_region_dispatch_write(ptr noundef %call, i64 noundef %4, i64 noundef %conv6, i32 noundef %or8, i32 %attrs.coerce) #28
  br label %if.end

if.else:                                          ; preds = %memory_access_is_direct.exit
  %ram_block = getelementptr inbounds nuw i8, ptr %call, i64 56
  %5 = load ptr, ptr %ram_block, align 8
  %6 = load i64, ptr %addr1, align 8
  %call11 = tail call ptr @qemu_map_ram_ptr(ptr noundef %5, i64 noundef %6)
  %cond = icmp eq i32 %endian, 1
  %7 = tail call i32 @llvm.bswap.i32(i32 %val)
  %val.sink = select i1 %cond, i32 %7, i32 %val
  store i32 %val.sink, ptr %call11, align 1
  tail call fastcc void @invalidate_and_set_dirty(ptr noundef nonnull %call, i64 noundef %6, i64 noundef 4)
  br label %if.end

if.end:                                           ; preds = %if.else, %prepare_mmio_access.exit
  %r.0 = phi i32 [ %call10, %prepare_mmio_access.exit ], [ 0, %if.else ]
  %release_lock.0 = phi i1 [ %release_lock.0.i, %prepare_mmio_access.exit ], [ false, %if.else ]
  %tobool13.not = icmp eq ptr %result, null
  br i1 %tobool13.not, label %if.end15, label %if.then14

if.then14:                                        ; preds = %if.end
  store i32 %r.0, ptr %result, align 4
  br label %if.end15

if.end15:                                         ; preds = %if.then14, %if.end
  br i1 %release_lock.0, label %if.then17, label %if.end18

if.then17:                                        ; preds = %if.end15
  tail call void @qemu_mutex_unlock_iothread() #28
  br label %if.end18

if.end18:                                         ; preds = %if.then17, %if.end15
  ret void
}